; Function Attrs: nounwind uwtable
define range(i32 -1, 2) i32 @H5Iis_valid(i64 noundef %0) local_unnamed_addr #0 {
  %2 = load i8, ptr @H5_libinit_g, align 1
  %3 = trunc i8 %2 to i1
  %4 = load i8, ptr @H5_libterm_g, align 1
  %5 = trunc i8 %4 to i1
  %6 = select i1 %3, i1 true, i1 %5
  br i1 %6, label %10, label %7

7:                                                ; preds = %1
  %8 = tail call i32 @H5_init_library() #3
  %9 = icmp slt i32 %8, 0
  br i1 %9, label %22, label %10

10:                                               ; preds = %7, %1
  %11 = tail call i32 @H5CX_push() #3
  %12 = icmp slt i32 %11, 0
  br i1 %12, label %22, label %13

13:                                               ; preds = %10
  %14 = tail call i32 @H5E_clear_stack() #3
  %15 = tail call ptr @H5I__find_id(i64 noundef %0) #3
  %16 = icmp eq ptr %15, null
  br i1 %16, label %20, label %17

17:                                               ; preds = %13
  %18 = getelementptr inbounds i8, ptr %15, i64 12
  %19 = load i32, ptr %18, align 4
  %.not = icmp ne i32 %19, 0
  %spec.select = zext i1 %.not to i32
  br label %20

20:                                               ; preds = %17, %13
  %.07.ph = phi i32 [ %spec.select, %17 ], [ 0, %13 ]
  %21 = tail call i32 @H5CX_pop(i1 noundef zeroext true) #3
  br label %27

22:                                               ; preds = %10, %7
  %H5E_CANTINIT_g.sink = phi ptr [ @H5E_CANTINIT_g, %7 ], [ @H5E_CANTSET_g, %10 ]
  %.str.1.sink = phi ptr [ @.str.1, %7 ], [ @.str.2, %10 ]
  %23 = load i64, ptr @H5E_FUNC_g, align 8
  %24 = load i64, ptr %H5E_CANTINIT_g.sink, align 8
  %25 = tail call i32 (ptr, ptr, i32, i64, i64, ptr, ...) @H5E_printf_stack(ptr noundef nonnull @.str, ptr noundef nonnull @__func__.H5Iis_valid, i32 noundef 644, i64 noundef %23, i64 noundef %24, ptr noundef nonnull %.str.1.sink) #3
  %26 = tail call i32 @H5E_dump_api_stack() #3
  br label %27

27:                                               ; preds = %20, %22
  %.071220 = phi i32 [ -1, %22 ], [ %.07.ph, %20 ]
  ret i32 %.071220
}